target datalayout = "e-m:e-p270:32:32-p271:32:32-p272:64:64-i64:64-i128:128-f80:128-n8:16:32:64-S128"
target triple = "x86_64-pc-linux-gnu"

%struct._zval_struct = type { %union._zend_value, %union.anon, %union.anon.2 }
%union._zend_value = type { i64 }
%union.anon = type { i32 }
%union.anon.2 = type { i32 }
%struct._zend_refcounted_h = type { i32, %union.anon.3 }
%union.anon.3 = type { i32 }
%struct._zend_object = type { %struct._zend_refcounted_h, i32, ptr, ptr, ptr, [1 x %struct._zval_struct] }
%struct._spl_fixedarray_it = type { %struct._zend_object_iterator, i64 }
%struct._zend_object_iterator = type { %struct._zend_object, %struct._zval_struct, ptr, i64 }

@.str.36 = private unnamed_addr constant [53 x i8] c"An iterator cannot be used with foreach by reference\00", align 1

; Function Attrs: nounwind uwtable
define internal ptr @spl_fixedarray_get_iterator(ptr noundef %0, ptr noundef %1, i32 noundef %2) #0 {
  %4 = alloca ptr, align 8
  %5 = alloca ptr, align 8
  %6 = alloca ptr, align 8
  %7 = alloca ptr, align 8
  %8 = alloca i32, align 4
  %9 = alloca ptr, align 8
  %10 = alloca ptr, align 8
  %11 = alloca ptr, align 8
  store ptr %0, ptr %6, align 8
  store ptr %1, ptr %7, align 8
  store i32 %2, ptr %8, align 4
  %12 = load i32, ptr %8, align 4
  %13 = icmp ne i32 %12, 0
  br i1 %13, label %14, label %15

14:                                               ; preds = %3
  call void (ptr, ptr, ...) @zend_throw_error(ptr noundef null, ptr noundef @.str.36)
  store ptr null, ptr %5, align 8
  br label %41

15:                                               ; preds = %3
  %16 = call noalias ptr @_emalloc_96()
  store ptr %16, ptr %9, align 8
  %17 = load ptr, ptr %9, align 8
  call void @zend_iterator_init(ptr noundef %17)
  br label %18

18:                                               ; preds = %15
  %19 = load ptr, ptr %9, align 8
  %20 = getelementptr inbounds %struct._spl_fixedarray_it, ptr %19, i32 0, i32 0
  %21 = getelementptr inbounds %struct._zend_object_iterator, ptr %20, i32 0, i32 1
  store ptr %21, ptr %10, align 8
  %22 = load ptr, ptr %7, align 8
  %23 = getelementptr inbounds %struct._zval_struct, ptr %22, i32 0, i32 0
  %24 = load ptr, ptr %23, align 8
  store ptr %24, ptr %11, align 8
  %25 = load ptr, ptr %11, align 8
  %26 = getelementptr inbounds %struct._zend_object, ptr %25, i32 0, i32 0
  store ptr %26, ptr %4, align 8
  %27 = load ptr, ptr %4, align 8
  %28 = load i32, ptr %27, align 4
  %29 = add i32 %28, 1
  store i32 %29, ptr %27, align 4
  %30 = load ptr, ptr %11, align 8
  %31 = load ptr, ptr %10, align 8
  %32 = getelementptr inbounds %struct._zval_struct, ptr %31, i32 0, i32 0
  store ptr %30, ptr %32, align 8
  %33 = load ptr, ptr %10, align 8
  %34 = getelementptr inbounds %struct._zval_struct, ptr %33, i32 0, i32 1
  store i32 776, ptr %34, align 8
  br label %35

35:                                               ; preds = %18
  %36 = load ptr, ptr %9, align 8
  %37 = getelementptr inbounds %struct._spl_fixedarray_it, ptr %36, i32 0, i32 0
  %38 = getelementptr inbounds %struct._zend_object_iterator, ptr %37, i32 0, i32 2
  store ptr @spl_fixedarray_it_funcs, ptr %38, align 8
  %39 = load ptr, ptr %9, align 8
  %40 = getelementptr inbounds %struct._spl_fixedarray_it, ptr %39, i32 0, i32 0
  store ptr %40, ptr %5, align 8
  br label %41

41:                                               ; preds = %35, %14
  %42 = load ptr, ptr %5, align 8
  ret ptr %42
}